target datalayout = "e-m:e-p270:32:32-p271:32:32-p272:64:64-i64:64-i128:128-f80:128-n8:16:32:64-S128"
target triple = "x86_64-pc-linux-gnu"

%"class.llvm::MachineInstr" = type <{ %"class.llvm::ilist_node_with_parent", ptr, ptr, ptr, [3 x i8], %"class.llvm::ArrayRecycler<llvm::MachineOperand>::Capacity", i32, %"class.llvm::PointerSumType", %"class.llvm::DebugLoc", i32, i16, [2 x i8] }>
%"class.llvm::ilist_node_with_parent" = type { %"class.llvm::ilist_node" }
%"class.llvm::ilist_node" = type { %"class.llvm::ilist_node_impl" }
%"class.llvm::ilist_node_impl" = type { %"class.llvm::ilist_node_base" }
%"class.llvm::ilist_node_base" = type { %"class.llvm::ilist_detail::node_base_prevnext" }
%"class.llvm::ilist_detail::node_base_prevnext" = type { %"class.llvm::PointerIntPair", ptr }
%"class.llvm::PointerIntPair" = type { %"struct.llvm::detail::PunnedPointer" }
%"struct.llvm::detail::PunnedPointer" = type { [8 x i8] }
%"class.llvm::ArrayRecycler<llvm::MachineOperand>::Capacity" = type { i8 }
%"class.llvm::PointerSumType" = type { %"union.llvm::PointerSumType<llvm::MachineInstr::ExtraInfoInlineKinds, llvm::PointerSumTypeMember<0, llvm::MachineMemOperand *>, llvm::PointerSumTypeMember<1, llvm::MCSymbol *>, llvm::PointerSumTypeMember<2, llvm::MCSymbol *>, llvm::PointerSumTypeMember<3, llvm::MachineInstr::ExtraInfo *>>::StorageT" }
%"union.llvm::PointerSumType<llvm::MachineInstr::ExtraInfoInlineKinds, llvm::PointerSumTypeMember<0, llvm::MachineMemOperand *>, llvm::PointerSumTypeMember<1, llvm::MCSymbol *>, llvm::PointerSumTypeMember<2, llvm::MCSymbol *>, llvm::PointerSumTypeMember<3, llvm::MachineInstr::ExtraInfo *>>::StorageT" = type { i64 }
%"class.llvm::DebugLoc" = type { %"class.llvm::TypedTrackingMDRef" }
%"class.llvm::TypedTrackingMDRef" = type { %"class.llvm::TrackingMDRef" }
%"class.llvm::TrackingMDRef" = type { ptr }
%"class.llvm::MachineOperand" = type { i32, %union.anon.285, ptr, %"union.llvm::MachineOperand::ContentsUnion" }
%union.anon.285 = type { i32 }
%"union.llvm::MachineOperand::ContentsUnion" = type { %"class.llvm::ArrayRef.286" }
%"class.llvm::ArrayRef.286" = type { ptr, i64 }

; Function Attrs: mustprogress nounwind uwtable
define internal noundef i32 @_ZN4llvm10AArch64_AML13getExtendTypeEj(i32 noundef %0) #0 {
  %2 = alloca i32, align 4
  %3 = alloca i32, align 4
  store i32 %0, ptr %3, align 4
  %4 = load i32, ptr %3, align 4
  switch i32 %4, label %5 [
    i32 0, label %6
    i32 1, label %7
    i32 2, label %8
    i32 3, label %9
    i32 4, label %10
    i32 5, label %11
    i32 6, label %12
    i32 7, label %13
  ]

5:                                                ; preds = %1
  unreachable

6:                                                ; preds = %1
  store i32 5, ptr %2, align 4
  br label %14

7:                                                ; preds = %1
  store i32 6, ptr %2, align 4
  br label %14

8:                                                ; preds = %1
  store i32 7, ptr %2, align 4
  br label %14

9:                                                ; preds = %1
  store i32 8, ptr %2, align 4
  br label %14

10:                                               ; preds = %1
  store i32 9, ptr %2, align 4
  br label %14

11:                                               ; preds = %1
  store i32 10, ptr %2, align 4
  br label %14

12:                                               ; preds = %1
  store i32 11, ptr %2, align 4
  br label %14

13:                                               ; preds = %1
  store i32 12, ptr %2, align 4
  br label %14

14:                                               ; preds = %13, %12, %11, %10, %9, %8, %7, %6
  %15 = load i32, ptr %2, align 4
  ret i32 %15
}

; Function Attrs: mustprogress nounwind uwtable
define internal noundef i32 @_ZN4llvm10AArch64_AML18getArithShiftValueEj(i32 noundef %0) #0 {
  %2 = alloca i32, align 4
  store i32 %0, ptr %2, align 4
  %3 = load i32, ptr %2, align 4
  %4 = and i32 %3, 7
  ret i32 %4
}

; Function Attrs: mustprogress nounwind uwtable
define internal noundef i32 @_ZN4llvm10AArch64_AML18getArithExtendTypeEj(i32 noundef %0) #0 {
  %2 = alloca i32, align 4
  store i32 %0, ptr %2, align 4
  %3 = load i32, ptr %2, align 4
  %4 = lshr i32 %3, 3
  %5 = and i32 %4, 7
  %6 = call noundef i32 @_ZN4llvm10AArch64_AML13getExtendTypeEj(i32 noundef %5)
  ret i32 %6
}

; Function Attrs: mustprogress nounwind uwtable
define internal noundef i32 @_ZN4llvm10AArch64_AML12getShiftTypeEj(i32 noundef %0) #0 {
  %2 = alloca i32, align 4
  %3 = alloca i32, align 4
  store i32 %0, ptr %3, align 4
  %4 = load i32, ptr %3, align 4
  %5 = lshr i32 %4, 6
  %6 = and i32 %5, 7
  switch i32 %6, label %7 [
    i32 0, label %8
    i32 1, label %9
    i32 2, label %10
    i32 3, label %11
    i32 4, label %12
  ]

7:                                                ; preds = %1
  store i32 -1, ptr %2, align 4
  br label %13

8:                                                ; preds = %1
  store i32 0, ptr %2, align 4
  br label %13

9:                                                ; preds = %1
  store i32 1, ptr %2, align 4
  br label %13

10:                                               ; preds = %1
  store i32 2, ptr %2, align 4
  br label %13

11:                                               ; preds = %1
  store i32 3, ptr %2, align 4
  br label %13

12:                                               ; preds = %1
  store i32 4, ptr %2, align 4
  br label %13

13:                                               ; preds = %12, %11, %10, %9, %8, %7
  %14 = load i32, ptr %2, align 4
  ret i32 %14
}

; Function Attrs: mustprogress nounwind uwtable
define internal noundef i32 @_ZN4llvm10AArch64_AML13getShiftValueEj(i32 noundef %0) #0 {
  %2 = alloca i32, align 4
  store i32 %0, ptr %2, align 4
  %3 = load i32, ptr %2, align 4
  %4 = and i32 %3, 63
  ret i32 %4
}

; Function Attrs: mustprogress nounwind uwtable
define linkonce_odr hidden noundef i64 @_ZNK4llvm14MachineOperand6getImmEv(ptr noundef nonnull align 8 dereferenceable(32) %0) #0 comdat align 2 {
  %2 = alloca ptr, align 8
  store ptr %0, ptr %2, align 8
  %3 = load ptr, ptr %2, align 8
  %4 = getelementptr inbounds nuw %"class.llvm::MachineOperand", ptr %3, i32 0, i32 3
  %5 = load i64, ptr %4, align 8
  ret i64 %5
}

; Function Attrs: mustprogress nounwind uwtable
define linkonce_odr hidden noundef nonnull align 8 dereferenceable(32) ptr @_ZNK4llvm12MachineInstr10getOperandEj(ptr noundef nonnull align 8 dereferenceable(70) %0, i32 noundef %1) #0 comdat align 2 {
  %3 = alloca ptr, align 8
  %4 = alloca i32, align 4
  store ptr %0, ptr %3, align 8
  store i32 %1, ptr %4, align 4
  %5 = load ptr, ptr %3, align 8
  %6 = getelementptr inbounds nuw %"class.llvm::MachineInstr", ptr %5, i32 0, i32 3
  %7 = load ptr, ptr %6, align 8
  %8 = load i32, ptr %4, align 4
  %9 = zext i32 %8 to i64
  %10 = getelementptr inbounds %"class.llvm::MachineOperand", ptr %7, i64 %9
  ret ptr %10
}

; Function Attrs: mustprogress nounwind uwtable
define linkonce_odr hidden noundef i32 @_ZNK4llvm12MachineInstr9getOpcodeEv(ptr noundef nonnull align 8 dereferenceable(70) %0) #0 comdat align 2 {
  %2 = alloca ptr, align 8
  store ptr %0, ptr %2, align 8
  %3 = load ptr, ptr %2, align 8
  %4 = getelementptr inbounds nuw %"class.llvm::MachineInstr", ptr %3, i32 0, i32 10
  %5 = load i16, ptr %4, align 4
  %6 = zext i16 %5 to i32
  ret i32 %6
}

; Function Attrs: mustprogress nounwind uwtable
define dso_local noundef zeroext i1 @_ZN4llvm16AArch64InstrInfo20isFalkorShiftExtFastERKNS_12MachineInstrE(ptr noundef nonnull align 8 dereferenceable(70) %0) #0 align 2 {
  %2 = alloca i1, align 1
  %3 = alloca ptr, align 8
  %4 = alloca i32, align 4
  %5 = alloca i32, align 4
  %6 = alloca i32, align 4
  %7 = alloca i32, align 4
  %8 = alloca i32, align 4
  %9 = alloca i32, align 4
  %10 = alloca i32, align 4
  %11 = alloca i32, align 4
  %12 = alloca i32, align 4
  store ptr %0, ptr %3, align 8
  %13 = load ptr, ptr %3, align 8
  %14 = call noundef i32 @_ZNK4llvm12MachineInstr9getOpcodeEv(ptr noundef nonnull align 8 dereferenceable(70) %13)
  switch i32 %14, label %15 [
    i32 1463, label %16
    i32 1466, label %16
    i32 1448, label %16
    i32 1451, label %16
    i32 1464, label %35
    i32 1467, label %35
    i32 1468, label %35
    i32 1449, label %35
    i32 1452, label %35
    i32 1453, label %35
    i32 6859, label %47
    i32 6852, label %47
    i32 6862, label %67
    i32 6855, label %67
    i32 6860, label %87
    i32 6863, label %87
    i32 6864, label %87
    i32 6853, label %87
    i32 6856, label %87
    i32 6857, label %87
    i32 4378, label %99
    i32 4379, label %99
    i32 4383, label %99
    i32 4384, label %99
    i32 4389, label %99
    i32 4390, label %99
    i32 4394, label %99
    i32 4395, label %99
    i32 4399, label %99
    i32 4400, label %99
    i32 4405, label %99
    i32 4406, label %99
    i32 4410, label %99
    i32 4411, label %99
    i32 4415, label %99
    i32 4416, label %99
    i32 4420, label %99
    i32 4421, label %99
    i32 4425, label %99
    i32 4426, label %99
    i32 4431, label %99
    i32 4432, label %99
    i32 4437, label %99
    i32 4438, label %99
    i32 4443, label %99
    i32 4444, label %99
    i32 4449, label %99
    i32 4450, label %99
    i32 4980, label %99
    i32 4981, label %99
    i32 6754, label %99
    i32 6755, label %99
    i32 6759, label %99
    i32 6760, label %99
    i32 6764, label %99
    i32 6765, label %99
    i32 6769, label %99
    i32 6770, label %99
    i32 6774, label %99
    i32 6775, label %99
    i32 6779, label %99
    i32 6780, label %99
    i32 6784, label %99
    i32 6785, label %99
    i32 6789, label %99
    i32 6790, label %99
    i32 6794, label %99
    i32 6795, label %99
  ]

15:                                               ; preds = %1
  store i1 false, ptr %2, align 1
  br label %107

16:                                               ; preds = %1, %1, %1, %1
  %17 = load ptr, ptr %3, align 8
  %18 = call noundef nonnull align 8 dereferenceable(32) ptr @_ZNK4llvm12MachineInstr10getOperandEj(ptr noundef nonnull align 8 dereferenceable(70) %17, i32 noundef 3)
  %19 = call noundef i64 @_ZNK4llvm14MachineOperand6getImmEv(ptr noundef nonnull align 8 dereferenceable(32) %18)
  %20 = trunc i64 %19 to i32
  store i32 %20, ptr %4, align 4
  %21 = load i32, ptr %4, align 4
  %22 = call noundef i32 @_ZN4llvm10AArch64_AML13getShiftValueEj(i32 noundef %21)
  store i32 %22, ptr %5, align 4
  %23 = load i32, ptr %5, align 4
  %24 = icmp eq i32 %23, 0
  br i1 %24, label %25, label %26

25:                                               ; preds = %16
  store i1 true, ptr %2, align 1
  br label %107

26:                                               ; preds = %16
  %27 = load i32, ptr %4, align 4
  %28 = call noundef i32 @_ZN4llvm10AArch64_AML12getShiftTypeEj(i32 noundef %27)
  %29 = icmp eq i32 %28, 0
  br i1 %29, label %30, label %33

30:                                               ; preds = %26
  %31 = load i32, ptr %5, align 4
  %32 = icmp ule i32 %31, 5
  br label %33

33:                                               ; preds = %30, %26
  %34 = phi i1 [ false, %26 ], [ %32, %30 ]
  store i1 %34, ptr %2, align 1
  br label %107

35:                                               ; preds = %1, %1, %1, %1, %1, %1
  %36 = load ptr, ptr %3, align 8
  %37 = call noundef nonnull align 8 dereferenceable(32) ptr @_ZNK4llvm12MachineInstr10getOperandEj(ptr noundef nonnull align 8 dereferenceable(70) %36, i32 noundef 3)
  %38 = call noundef i64 @_ZNK4llvm14MachineOperand6getImmEv(ptr noundef nonnull align 8 dereferenceable(32) %37)
  %39 = trunc i64 %38 to i32
  store i32 %39, ptr %6, align 4
  %40 = load i32, ptr %6, align 4
  %41 = call noundef i32 @_ZN4llvm10AArch64_AML18getArithExtendTypeEj(i32 noundef %40)
  switch i32 %41, label %42 [
    i32 5, label %43
    i32 6, label %43
    i32 7, label %43
    i32 8, label %43
  ]

42:                                               ; preds = %35
  store i1 false, ptr %2, align 1
  br label %107

43:                                               ; preds = %35, %35, %35, %35
  %44 = load i32, ptr %6, align 4
  %45 = call noundef i32 @_ZN4llvm10AArch64_AML18getArithShiftValueEj(i32 noundef %44)
  %46 = icmp ule i32 %45, 4
  store i1 %46, ptr %2, align 1
  br label %107

47:                                               ; preds = %1, %1
  %48 = load ptr, ptr %3, align 8
  %49 = call noundef nonnull align 8 dereferenceable(32) ptr @_ZNK4llvm12MachineInstr10getOperandEj(ptr noundef nonnull align 8 dereferenceable(70) %48, i32 noundef 3)
  %50 = call noundef i64 @_ZNK4llvm14MachineOperand6getImmEv(ptr noundef nonnull align 8 dereferenceable(32) %49)
  %51 = trunc i64 %50 to i32
  store i32 %51, ptr %7, align 4
  %52 = load i32, ptr %7, align 4
  %53 = call noundef i32 @_ZN4llvm10AArch64_AML13getShiftValueEj(i32 noundef %52)
  store i32 %53, ptr %8, align 4
  %54 = load i32, ptr %8, align 4
  %55 = icmp eq i32 %54, 0
  br i1 %55, label %65, label %56

56:                                               ; preds = %47
  %57 = load i32, ptr %7, align 4
  %58 = call noundef i32 @_ZN4llvm10AArch64_AML12getShiftTypeEj(i32 noundef %57)
  %59 = icmp eq i32 %58, 2
  br i1 %59, label %60, label %63

60:                                               ; preds = %56
  %61 = load i32, ptr %8, align 4
  %62 = icmp eq i32 %61, 31
  br label %63

63:                                               ; preds = %60, %56
  %64 = phi i1 [ false, %56 ], [ %62, %60 ]
  br label %65

65:                                               ; preds = %63, %47
  %66 = phi i1 [ true, %47 ], [ %64, %63 ]
  store i1 %66, ptr %2, align 1
  br label %107

67:                                               ; preds = %1, %1
  %68 = load ptr, ptr %3, align 8
  %69 = call noundef nonnull align 8 dereferenceable(32) ptr @_ZNK4llvm12MachineInstr10getOperandEj(ptr noundef nonnull align 8 dereferenceable(70) %68, i32 noundef 3)
  %70 = call noundef i64 @_ZNK4llvm14MachineOperand6getImmEv(ptr noundef nonnull align 8 dereferenceable(32) %69)
  %71 = trunc i64 %70 to i32
  store i32 %71, ptr %9, align 4
  %72 = load i32, ptr %9, align 4
  %73 = call noundef i32 @_ZN4llvm10AArch64_AML13getShiftValueEj(i32 noundef %72)
  store i32 %73, ptr %10, align 4
  %74 = load i32, ptr %10, align 4
  %75 = icmp eq i32 %74, 0
  br i1 %75, label %85, label %76

76:                                               ; preds = %67
  %77 = load i32, ptr %9, align 4
  %78 = call noundef i32 @_ZN4llvm10AArch64_AML12getShiftTypeEj(i32 noundef %77)
  %79 = icmp eq i32 %78, 2
  br i1 %79, label %80, label %83

80:                                               ; preds = %76
  %81 = load i32, ptr %10, align 4
  %82 = icmp eq i32 %81, 63
  br label %83

83:                                               ; preds = %80, %76
  %84 = phi i1 [ false, %76 ], [ %82, %80 ]
  br label %85

85:                                               ; preds = %83, %67
  %86 = phi i1 [ true, %67 ], [ %84, %83 ]
  store i1 %86, ptr %2, align 1
  br label %107

87:                                               ; preds = %1, %1, %1, %1, %1, %1
  %88 = load ptr, ptr %3, align 8
  %89 = call noundef nonnull align 8 dereferenceable(32) ptr @_ZNK4llvm12MachineInstr10getOperandEj(ptr noundef nonnull align 8 dereferenceable(70) %88, i32 noundef 3)
  %90 = call noundef i64 @_ZNK4llvm14MachineOperand6getImmEv(ptr noundef nonnull align 8 dereferenceable(32) %89)
  %91 = trunc i64 %90 to i32
  store i32 %91, ptr %11, align 4
  %92 = load i32, ptr %11, align 4
  %93 = call noundef i32 @_ZN4llvm10AArch64_AML18getArithExtendTypeEj(i32 noundef %92)
  switch i32 %93, label %94 [
    i32 5, label %95
    i32 6, label %95
    i32 7, label %95
    i32 8, label %95
  ]

94:                                               ; preds = %87
  store i1 false, ptr %2, align 1
  br label %107

95:                                               ; preds = %87, %87, %87, %87
  %96 = load i32, ptr %11, align 4
  %97 = call noundef i32 @_ZN4llvm10AArch64_AML18getArithShiftValueEj(i32 noundef %96)
  %98 = icmp eq i32 %97, 0
  store i1 %98, ptr %2, align 1
  br label %107

99:                                               ; preds = %1, %1, %1, %1, %1, %1, %1, %1, %1, %1, %1, %1, %1, %1, %1, %1, %1, %1, %1, %1, %1, %1, %1, %1, %1, %1, %1, %1, %1, %1, %1, %1, %1, %1, %1, %1, %1, %1, %1, %1, %1, %1, %1, %1, %1, %1, %1, %1
  %100 = load ptr, ptr %3, align 8
  %101 = call noundef nonnull align 8 dereferenceable(32) ptr @_ZNK4llvm12MachineInstr10getOperandEj(ptr noundef nonnull align 8 dereferenceable(70) %100, i32 noundef 3)
  %102 = call noundef i64 @_ZNK4llvm14MachineOperand6getImmEv(ptr noundef nonnull align 8 dereferenceable(32) %101)
  %103 = trunc i64 %102 to i32
  store i32 %103, ptr %12, align 4
  %104 = load i32, ptr %12, align 4
  %105 = icmp ne i32 %104, 0
  %106 = xor i1 %105, true
  store i1 %106, ptr %2, align 1
  br label %107

107:                                              ; preds = %99, %95, %94, %85, %65, %43, %42, %33, %25, %15
  %108 = load i1, ptr %2, align 1
  ret i1 %108
}