; Function Attrs: mustprogress nofree norecurse nosync nounwind willreturn memory(read, inaccessiblemem: none) uwtable
define dso_local noundef zeroext i1 @_ZN4llvm16AArch64InstrInfo20isFalkorShiftExtFastERKNS_12MachineInstrE(ptr nocapture noundef nonnull readonly align 8 dereferenceable(70) %0) local_unnamed_addr #4 align 2 {
  %2 = getelementptr inbounds nuw i8, ptr %0, i64 68
  %3 = load i16, ptr %2, align 4
  switch i16 %3, label %_ZN4llvm10AArch64_AML18getArithExtendTypeEj.exit [
    i16 1463, label %4
    i16 1466, label %4
    i16 1448, label %4
    i16 1451, label %4
    i16 1464, label %15
    i16 1467, label %15
    i16 1468, label %15
    i16 1449, label %15
    i16 1452, label %15
    i16 1453, label %15
    i16 6859, label %25
    i16 6852, label %25
    i16 6862, label %35
    i16 6855, label %35
    i16 6860, label %45
    i16 6863, label %45
    i16 6864, label %45
    i16 6853, label %45
    i16 6856, label %45
    i16 6857, label %45
    i16 4378, label %55
    i16 4379, label %55
    i16 4383, label %55
    i16 4384, label %55
    i16 4389, label %55
    i16 4390, label %55
    i16 4394, label %55
    i16 4395, label %55
    i16 4399, label %55
    i16 4400, label %55
    i16 4405, label %55
    i16 4406, label %55
    i16 4410, label %55
    i16 4411, label %55
    i16 4415, label %55
    i16 4416, label %55
    i16 4420, label %55
    i16 4421, label %55
    i16 4425, label %55
    i16 4426, label %55
    i16 4431, label %55
    i16 4432, label %55
    i16 4437, label %55
    i16 4438, label %55
    i16 4443, label %55
    i16 4444, label %55
    i16 4449, label %55
    i16 4450, label %55
    i16 4980, label %55
    i16 4981, label %55
    i16 6754, label %55
    i16 6755, label %55
    i16 6759, label %55
    i16 6760, label %55
    i16 6764, label %55
    i16 6765, label %55
    i16 6769, label %55
    i16 6770, label %55
    i16 6774, label %55
    i16 6775, label %55
    i16 6779, label %55
    i16 6780, label %55
    i16 6784, label %55
    i16 6785, label %55
    i16 6789, label %55
    i16 6790, label %55
    i16 6794, label %55
    i16 6795, label %55
  ]

4:                                                ; preds = %1, %1, %1, %1
  %5 = getelementptr inbounds nuw i8, ptr %0, i64 32
  %6 = load ptr, ptr %5, align 8
  %7 = getelementptr inbounds i8, ptr %6, i64 112
  %8 = load i64, ptr %7, align 8
  %9 = trunc i64 %8 to i32
  %10 = and i32 %9, 63
  %11 = icmp eq i32 %10, 0
  br i1 %11, label %_ZN4llvm10AArch64_AML18getArithExtendTypeEj.exit, label %_ZN4llvm10AArch64_AML12getShiftTypeEj.exit

_ZN4llvm10AArch64_AML12getShiftTypeEj.exit:       ; preds = %4
  %12 = and i32 %9, 448
  %cond = icmp eq i32 %12, 0
  %13 = icmp ult i32 %10, 6
  %14 = and i1 %13, %cond
  br label %_ZN4llvm10AArch64_AML18getArithExtendTypeEj.exit

15:                                               ; preds = %1, %1, %1, %1, %1, %1
  %16 = getelementptr inbounds nuw i8, ptr %0, i64 32
  %17 = load ptr, ptr %16, align 8
  %18 = getelementptr inbounds i8, ptr %17, i64 112
  %19 = load i64, ptr %18, align 8
  %20 = trunc i64 %19 to i32
  %21 = and i32 %20, 32
  %switch.not.not = icmp eq i32 %21, 0
  br i1 %switch.not.not, label %22, label %_ZN4llvm10AArch64_AML18getArithExtendTypeEj.exit

22:                                               ; preds = %15
  %23 = and i32 %20, 7
  %24 = icmp ult i32 %23, 5
  br label %_ZN4llvm10AArch64_AML18getArithExtendTypeEj.exit

25:                                               ; preds = %1, %1
  %26 = getelementptr inbounds nuw i8, ptr %0, i64 32
  %27 = load ptr, ptr %26, align 8
  %28 = getelementptr inbounds i8, ptr %27, i64 112
  %29 = load i64, ptr %28, align 8
  %30 = trunc i64 %29 to i32
  %31 = and i32 %30, 63
  %32 = icmp eq i32 %31, 0
  br i1 %32, label %_ZN4llvm10AArch64_AML18getArithExtendTypeEj.exit, label %_ZN4llvm10AArch64_AML12getShiftTypeEj.exit30

_ZN4llvm10AArch64_AML12getShiftTypeEj.exit30:     ; preds = %25
  %33 = and i32 %30, 511
  %34 = icmp eq i32 %33, 159
  br label %_ZN4llvm10AArch64_AML18getArithExtendTypeEj.exit

35:                                               ; preds = %1, %1
  %36 = getelementptr inbounds nuw i8, ptr %0, i64 32
  %37 = load ptr, ptr %36, align 8
  %38 = getelementptr inbounds i8, ptr %37, i64 112
  %39 = load i64, ptr %38, align 8
  %40 = trunc i64 %39 to i32
  %41 = and i32 %40, 63
  %42 = icmp eq i32 %41, 0
  br i1 %42, label %_ZN4llvm10AArch64_AML18getArithExtendTypeEj.exit, label %_ZN4llvm10AArch64_AML12getShiftTypeEj.exit32

_ZN4llvm10AArch64_AML12getShiftTypeEj.exit32:     ; preds = %35
  %43 = and i32 %40, 511
  %44 = icmp eq i32 %43, 191
  br label %_ZN4llvm10AArch64_AML18getArithExtendTypeEj.exit

45:                                               ; preds = %1, %1, %1, %1, %1, %1
  %46 = getelementptr inbounds nuw i8, ptr %0, i64 32
  %47 = load ptr, ptr %46, align 8
  %48 = getelementptr inbounds i8, ptr %47, i64 112
  %49 = load i64, ptr %48, align 8
  %50 = trunc i64 %49 to i32
  %51 = and i32 %50, 32
  %switch46.not.not = icmp eq i32 %51, 0
  br i1 %switch46.not.not, label %52, label %_ZN4llvm10AArch64_AML18getArithExtendTypeEj.exit

52:                                               ; preds = %45
  %53 = and i32 %50, 7
  %54 = icmp eq i32 %53, 0
  br label %_ZN4llvm10AArch64_AML18getArithExtendTypeEj.exit

55:                                               ; preds = %1, %1, %1, %1, %1, %1, %1, %1, %1, %1, %1, %1, %1, %1, %1, %1, %1, %1, %1, %1, %1, %1, %1, %1, %1, %1, %1, %1, %1, %1, %1, %1, %1, %1, %1, %1, %1, %1, %1, %1, %1, %1, %1, %1, %1, %1, %1, %1
  %56 = getelementptr inbounds nuw i8, ptr %0, i64 32
  %57 = load ptr, ptr %56, align 8
  %58 = getelementptr inbounds i8, ptr %57, i64 112
  %59 = load i64, ptr %58, align 8
  %60 = and i64 %59, 4294967295
  %.not = icmp eq i64 %60, 0
  br label %_ZN4llvm10AArch64_AML18getArithExtendTypeEj.exit

_ZN4llvm10AArch64_AML18getArithExtendTypeEj.exit: ; preds = %45, %15, %35, %_ZN4llvm10AArch64_AML12getShiftTypeEj.exit32, %25, %_ZN4llvm10AArch64_AML12getShiftTypeEj.exit30, %4, %1, %55, %52, %22, %_ZN4llvm10AArch64_AML12getShiftTypeEj.exit
  %.0 = phi i1 [ %.not, %55 ], [ %54, %52 ], [ %24, %22 ], [ %14, %_ZN4llvm10AArch64_AML12getShiftTypeEj.exit ], [ false, %1 ], [ true, %4 ], [ true, %25 ], [ %34, %_ZN4llvm10AArch64_AML12getShiftTypeEj.exit30 ], [ true, %35 ], [ %44, %_ZN4llvm10AArch64_AML12getShiftTypeEj.exit32 ], [ false, %15 ], [ false, %45 ]
  ret i1 %.0
}